Certificate:
    Data:
        Version: 3 (0x2)
        Serial Number:
            87:4e:ba:f9:b7:57:18:f0
        Signature Algorithm: sha1WithRSAEncryption
        Issuer: C=BR, ST=S\xE3o Paulo, O=Instituto de F\xEDsica - USP, OU=CCIFUSP Centro de Computa\xE7\xE3o, CN=CCIFUSP Centro de Computacao/emailAddress=ccifusp@if.usp.br
        Validity
            Not Before: Oct  1 19:10:38 2009 GMT
            Not After : Sep 24 19:10:38 2039 GMT
        Subject: C=BR, ST=S\xE3o Paulo, O=Instituto de F\xEDsica - USP, OU=CCIFUSP Centro de Computa\xE7\xE3o, CN=CCIFUSP Centro de Computacao/emailAddress=ccifusp@if.usp.br
        Subject Public Key Info:
            Public Key Algorithm: rsaEncryption
            RSA Public Key: (2048 bit)
                Modulus (2048 bit):
                    00:c1:9e:98:e4:99:1c:b8:92:62:2d:17:c9:ff:c9:
                    37:b8:7a:11:7c:5a:ec:b1:b7:c3:75:c3:f5:41:97:
                    a5:67:48:99:05:48:d0:35:66:d3:c4:00:cc:92:39:
                    87:11:6f:e0:d0:3a:82:db:38:ae:e5:4b:e0:e1:fb:
                    fa:9b:e2:dc:d2:bd:de:cd:01:0a:7c:87:ec:33:88:
                    f9:69:8c:b4:d1:dc:60:53:9f:01:c6:7a:ba:51:bd:
                    75:b4:b8:c7:2c:ba:50:b5:31:9c:96:47:ab:8b:97:
                    d1:51:23:0d:05:d3:33:b8:7c:40:17:a3:10:bd:f2:
                    66:98:ee:9d:a6:0f:99:8d:cb:03:4b:bc:a9:df:aa:
                    c9:26:c6:47:fe:73:4b:0f:91:b7:2a:5e:8d:21:69:
                    a8:56:e4:51:fd:4a:a1:0d:7c:31:77:dc:1d:1d:03:
                    75:e0:13:60:23:d4:af:a1:f4:aa:01:62:99:aa:f5:
                    6f:19:04:fa:40:ee:5b:d5:5d:52:3c:5a:ee:20:93:
                    f7:ed:6d:0b:35:8a:ac:2d:d6:6b:9f:31:4a:2e:93:
                    84:0d:09:44:52:c6:a8:a2:41:a1:d9:fd:d0:b8:13:
                    ae:4a:d3:e9:04:54:d5:7a:57:a7:1e:d9:55:ff:1f:
                    84:3d:b8:c9:3c:4d:c2:75:b6:af:a7:a3:29:0a:b5:
                    ab:3b
                Exponent: 65537 (0x10001)
        X509v3 extensions:
            X509v3 Subject Key Identifier: 
                8D:C2:C3:D3:69:0B:98:1A:F8:37:46:37:67:03:5A:0A:FC:D8:EB:FC
            X509v3 Authority Key Identifier: 
                keyid:8D:C2:C3:D3:69:0B:98:1A:F8:37:46:37:67:03:5A:0A:FC:D8:EB:FC
                DirName:/C=BR/ST=S\xE3o Paulo/O=Instituto de F\xEDsica - USP/OU=CCIFUSP Centro de Computa\xE7\xE3o/CN=CCIFUSP Centro de Computacao/emailAddress=ccifusp@if.usp.br
                serial:87:4E:BA:F9:B7:57:18:F0

            X509v3 Basic Constraints: 
                CA:TRUE
    Signature Algorithm: sha1WithRSAEncryption
        0c:58:ca:32:73:8d:26:26:53:54:1f:98:a9:e7:e2:6a:9a:3e:
        6c:e4:df:dd:f9:da:a2:fd:a7:de:5b:05:02:e5:b2:8b:f3:37:
        41:4e:15:b9:bf:02:22:b0:f3:7e:42:65:9f:dd:b6:dc:65:d8:
        4d:9a:52:2c:fd:f2:a9:0e:f3:2e:80:f1:85:41:1f:59:f0:88:
        eb:0c:94:67:af:94:23:c2:9c:69:c4:12:15:4c:2c:8a:2b:6c:
        be:74:e7:a4:60:73:9e:3c:b6:7b:03:99:f0:18:85:d4:1b:2c:
        4a:4e:9f:f2:b5:2c:2c:d3:bb:ba:33:32:a3:a8:17:cf:47:79:
        22:f4:3d:4b:d5:62:ef:1f:70:23:f5:09:46:fd:26:99:21:35:
        85:57:3b:b0:1e:26:e0:95:c0:7a:51:18:97:41:4a:dd:3f:7c:
        d5:a7:29:03:7c:cd:76:ef:47:45:37:38:63:fd:9e:b8:bd:b7:
        67:d8:e9:94:cd:c6:7f:a2:12:4c:6c:22:7d:d6:01:6d:0f:14:
        d8:eb:a4:82:e5:68:df:4a:8f:23:e3:7e:a1:53:70:81:18:13:
        a0:ad:3e:a5:67:c9:e7:17:b5:e0:a3:9f:75:57:fd:d0:77:8d:
        27:fe:f4:48:5e:c2:40:42:cd:3d:6c:f8:1d:89:50:cb:1b:57:
        09:39:e4:27
-----BEGIN CERTIFICATE-----
MIIFDzCCA/egAwIBAgIJAIdOuvm3VxjwMA0GCSqGSIb3DQEBBQUAMIG1MQswCQYD
VQQGEwJCUjESMBAGA1UECBQJU+NvIFBhdWxvMSIwIAYDVQQKFBlJbnN0aXR1dG8g
ZGUgRu1zaWNhIC0gVVNQMSUwIwYDVQQLFBxDQ0lGVVNQIENlbnRybyBkZSBDb21w
dXRh5+NvMSUwIwYDVQQDExxDQ0lGVVNQIENlbnRybyBkZSBDb21wdXRhY2FvMSAw
HgYJKoZIhvcNAQkBFhFjY2lmdXNwQGlmLnVzcC5icjAeFw0wOTEwMDExOTEwMzha
Fw0zOTA5MjQxOTEwMzhaMIG1MQswCQYDVQQGEwJCUjESMBAGA1UECBQJU+NvIFBh
dWxvMSIwIAYDVQQKFBlJbnN0aXR1dG8gZGUgRu1zaWNhIC0gVVNQMSUwIwYDVQQL
FBxDQ0lGVVNQIENlbnRybyBkZSBDb21wdXRh5+NvMSUwIwYDVQQDExxDQ0lGVVNQ
IENlbnRybyBkZSBDb21wdXRhY2FvMSAwHgYJKoZIhvcNAQkBFhFjY2lmdXNwQGlm
LnVzcC5icjCCASIwDQYJKoZIhvcNAQEBBQADggEPADCCAQoCggEBAMGemOSZHLiS
Yi0Xyf/JN7h6EXxa7LG3w3XD9UGXpWdImQVI0DVm08QAzJI5hxFv4NA6gts4ruVL
4OH7+pvi3NK93s0BCnyH7DOI+WmMtNHcYFOfAcZ6ulG9dbS4xyy6ULUxnJZHq4uX
0VEjDQXTM7h8QBejEL3yZpjunaYPmY3LA0u8qd+qySbGR/5zSw+RtypejSFpqFbk
Uf1KoQ18MXfcHR0DdeATYCPUr6H0qgFimar1bxkE+kDuW9VdUjxa7iCT9+1tCzWK
rC3Wa58xSi6ThA0JRFLGqKJBodn90LgTrkrT6QRU1XpXpx7ZVf8fhD24yTxNwnW2
r6ejKQq1qzsCAwEAAaOCAR4wggEaMB0GA1UdDgQWBBSNwsPTaQuYGvg3RjdnA1oK
/Njr/DCB6gYDVR0jBIHiMIHfgBSNwsPTaQuYGvg3RjdnA1oK/Njr/KGBu6SBuDCB
tTELMAkGA1UEBhMCQlIxEjAQBgNVBAgUCVPjbyBQYXVsbzEiMCAGA1UEChQZSW5z
dGl0dXRvIGRlIEbtc2ljYSAtIFVTUDElMCMGA1UECxQcQ0NJRlVTUCBDZW50cm8g
ZGUgQ29tcHV0YefjbzElMCMGA1UEAxMcQ0NJRlVTUCBDZW50cm8gZGUgQ29tcHV0
YWNhbzEgMB4GCSqGSIb3DQEJARYRY2NpZnVzcEBpZi51c3AuYnKCCQCHTrr5t1cY
8DAMBgNVHRMEBTADAQH/MA0GCSqGSIb3DQEBBQUAA4IBAQAMWMoyc40mJlNUH5ip
5+Jqmj5s5N/d+dqi/afeWwUC5bKL8zdBThW5vwIisPN+QmWf3bbcZdhNmlIs/fKp
DvMugPGFQR9Z8IjrDJRnr5QjwpxpxBIVTCyKK2y+dOekYHOePLZ7A5nwGIXUGyxK
Tp/ytSws07u6MzKjqBfPR3ki9D1L1WLvH3Aj9QlG/SaZITWFVzuwHibglcB6URiX
QUrdP3zVpykDfM1270dFNzhj/Z64vbdn2OmUzcZ/ohJMbCJ91gFtDxTY66SC5Wjf
So8j436hU3CBGBOgrT6lZ8nnF7Xgo591V/3Qd40n/vRIXsJAQs09bPgdiVDLG1cJ
OeQn
-----END CERTIFICATE-----
